(ioptparse
Values
p0
(dp1
S'selected_nodes'
p2
(lp3
sS'autoflatten'
p4
I01
sS'filetype'
p5
S'kicad_pcb'
p6
sS'ids'
p7
(lp8
S'rect825'
p9
asS'crop'
p10
I00
sS'debug'
p11
I00
sS'openkicad'
p12
I00
sS'openfactory'
p13
I00
sS'threshold'
p14
F46.0
sS'path'
p15
S'/home/william/Documents/Projects/CH552/BusinessCard/Schematics'
p16
sS'dpi'
p17
F600.0
sb.