(ioptparse
Values
p0
(dp1
S'selected_nodes'
p2
(lp3
sS'autoflatten'
p4
I01
sS'filetype'
p5
S'kicad_module'
p6
sS'ids'
p7
(lp8
S'rect5248'
p9
aS'rect5241'
p10
aS'path5210'
p11
asS'crop'
p12
I00
sS'debug'
p13
I00
sS'openkicad'
p14
I00
sS'openfactory'
p15
I00
sS'threshold'
p16
F46.0
sS'path'
p17
S'/home/william/Documents/Projects/CH552/BusinessCard/Footprints'
p18
sS'dpi'
p19
F600.0
sb.